; Function Attrs: mustprogress nofree norecurse nosync nounwind memory(readwrite, inaccessiblemem: none) uwtable
define void @_ZN4base14OffsetAdjuster15UnadjustOffsetsERKSt6vectorINS0_10AdjustmentESaIS2_EEPS1_ImSaImEE(ptr noundef nonnull readonly align 8 captures(none) dereferenceable(24) %0, ptr noundef readonly captures(address_is_null) %1) local_unnamed_addr #1 align 2 {
  %.not = icmp eq ptr %1, null
  br i1 %.not, label %.loopexit, label %3

3:                                                ; preds = %2
  %4 = load ptr, ptr %0, align 8, !tbaa !10
  %5 = getelementptr inbounds nuw i8, ptr %0, i64 8
  %6 = load ptr, ptr %5, align 8, !tbaa !10
  %7 = icmp eq ptr %4, %6
  br i1 %7, label %.loopexit, label %8

8:                                                ; preds = %3
  %9 = load ptr, ptr %1, align 8, !tbaa !13
  %10 = getelementptr inbounds nuw i8, ptr %1, i64 8
  %11 = load ptr, ptr %10, align 8, !tbaa !13
  %.not89 = icmp eq ptr %9, %11
  br i1 %.not89, label %.loopexit, label %.lr.ph

.lr.ph:                                           ; preds = %8, %_ZN4base14OffsetAdjuster14UnadjustOffsetERKSt6vectorINS0_10AdjustmentESaIS2_EEPm.exit
  %.sroa.05.010 = phi ptr [ %31, %_ZN4base14OffsetAdjuster14UnadjustOffsetERKSt6vectorINS0_10AdjustmentESaIS2_EEPm.exit ], [ %9, %8 ]
  %12 = load i64, ptr %.sroa.05.010, align 8, !tbaa !15
  %13 = icmp eq i64 %12, -1
  br i1 %13, label %_ZN4base14OffsetAdjuster14UnadjustOffsetERKSt6vectorINS0_10AdjustmentESaIS2_EEPm.exit, label %.lr.ph.i

14:                                               ; preds = %19
  %15 = getelementptr inbounds nuw i8, ptr %.sroa.012.025.i, i64 24
  %.not22.i = icmp eq ptr %15, %6
  br i1 %.not22.i, label %.sink.split.i, label %.lr.ph.i, !llvm.loop !19

.lr.ph.i:                                         ; preds = %.lr.ph, %14
  %.01126.i = phi i32 [ %26, %14 ], [ 0, %.lr.ph ]
  %.sroa.012.025.i = phi ptr [ %15, %14 ], [ %4, %.lr.ph ]
  %16 = sext i32 %.01126.i to i64
  %17 = add i64 %12, %16
  %18 = load i64, ptr %.sroa.012.025.i, align 8, !tbaa !3
  %.not.i = icmp ugt i64 %17, %18
  br i1 %.not.i, label %19, label %.sink.split.i

19:                                               ; preds = %.lr.ph.i
  %20 = getelementptr inbounds nuw i8, ptr %.sroa.012.025.i, i64 8
  %21 = load i64, ptr %20, align 8, !tbaa !8
  %22 = getelementptr inbounds nuw i8, ptr %.sroa.012.025.i, i64 16
  %23 = load i64, ptr %22, align 8, !tbaa !9
  %24 = sub i64 %21, %23
  %25 = trunc i64 %24 to i32
  %26 = add nsw i32 %.01126.i, %25
  %27 = sext i32 %26 to i64
  %28 = add i64 %12, %27
  %29 = add i64 %21, %18
  %30 = icmp ult i64 %28, %29
  br i1 %30, label %.sink.split.i, label %14

.sink.split.i:                                    ; preds = %19, %.lr.ph.i, %14
  %.sink.i = phi i64 [ %28, %14 ], [ %17, %.lr.ph.i ], [ -1, %19 ]
  store i64 %.sink.i, ptr %.sroa.05.010, align 8, !tbaa !15
  br label %_ZN4base14OffsetAdjuster14UnadjustOffsetERKSt6vectorINS0_10AdjustmentESaIS2_EEPm.exit

_ZN4base14OffsetAdjuster14UnadjustOffsetERKSt6vectorINS0_10AdjustmentESaIS2_EEPm.exit: ; preds = %.lr.ph, %.sink.split.i
  %31 = getelementptr inbounds nuw i8, ptr %.sroa.05.010, i64 8
  %.not8 = icmp eq ptr %31, %11
  br i1 %.not8, label %.loopexit, label %.lr.ph, !llvm.loop !20

.loopexit:                                        ; preds = %_ZN4base14OffsetAdjuster14UnadjustOffsetERKSt6vectorINS0_10AdjustmentESaIS2_EEPm.exit, %8, %2, %3
  ret void
}